; Function Attrs: mustprogress uwtable
define dso_local void @_ZN6bParse5bFile20resolvePointersChunkERKNS_9bChunkIndEi(ptr noundef nonnull readonly align 8 captures(none) dereferenceable(540) %0, ptr noundef nonnull readonly align 8 captures(none) dereferenceable(24) %1, i32 noundef %2) local_unnamed_addr #3 align 2 {
  %4 = getelementptr inbounds nuw i8, ptr %0, i64 168
  %5 = load ptr, ptr %4, align 8, !tbaa !65
  %.not = icmp eq ptr %5, null
  %6 = getelementptr inbounds nuw i8, ptr %0, i64 176
  %7 = load ptr, ptr %6, align 8
  %8 = select i1 %.not, ptr %7, ptr %5
  %9 = getelementptr inbounds nuw i8, ptr %1, i64 16
  %10 = load i32, ptr %9, align 8, !tbaa !80
  %11 = tail call noundef ptr @_ZN6bParse4bDNA9getStructEi(ptr noundef nonnull align 8 dereferenceable(420) %8, i32 noundef %10)
  %12 = load i16, ptr %11, align 2, !tbaa !81
  %13 = sext i16 %12 to i32
  %14 = tail call noundef signext i16 @_ZN6bParse4bDNA9getLengthEi(ptr noundef nonnull align 8 dereferenceable(420) %8, i32 noundef %13)
  %15 = getelementptr inbounds nuw i8, ptr %1, i64 8
  %16 = load ptr, ptr %15, align 8, !tbaa !66
  %17 = ptrtoint ptr %16 to i64
  %.sroa.0.0.extract.trunc.i = trunc i64 %17 to i32
  %.sroa.0.4.extract.shift.i = lshr i64 %17, 32
  %.sroa.0.4.extract.trunc.i = trunc nuw i64 %.sroa.0.4.extract.shift.i to i32
  %18 = add nsw i32 %.sroa.0.4.extract.trunc.i, %.sroa.0.0.extract.trunc.i
  %19 = shl i32 %18, 15
  %20 = xor i32 %19, -1
  %21 = add nsw i32 %18, %20
  %22 = ashr i32 %21, 10
  %23 = xor i32 %22, %21
  %24 = mul i32 %23, 9
  %25 = ashr i32 %24, 6
  %26 = xor i32 %25, %24
  %27 = shl i32 %26, 11
  %28 = xor i32 %27, -1
  %29 = add nsw i32 %26, %28
  %30 = ashr i32 %29, 16
  %31 = xor i32 %30, %29
  %32 = getelementptr inbounds nuw i8, ptr %0, i64 104
  %33 = load i32, ptr %32, align 8, !tbaa !42
  %34 = add nsw i32 %33, -1
  %35 = and i32 %31, %34
  %36 = getelementptr inbounds nuw i8, ptr %0, i64 36
  %37 = load i32, ptr %36, align 4, !tbaa !37
  %.not.i.i.i = icmp ult i32 %35, %37
  br i1 %.not.i.i.i, label %38, label %_ZN6bParse5bFile14findLibPointerEPv.exit

38:                                               ; preds = %3
  %39 = getelementptr inbounds nuw i8, ptr %0, i64 48
  %40 = load ptr, ptr %39, align 8, !tbaa !36
  %41 = sext i32 %35 to i64
  %42 = getelementptr inbounds i32, ptr %40, i64 %41
  %.012.i.i.i = load i32, ptr %42, align 4, !tbaa !76
  %.not1113.i.i.i = icmp eq i32 %.012.i.i.i, -1
  br i1 %.not1113.i.i.i, label %_ZN6bParse5bFile14findLibPointerEPv.exit, label %.lr.ph.i.i.i

.lr.ph.i.i.i:                                     ; preds = %38
  %43 = getelementptr inbounds nuw i8, ptr %0, i64 144
  %44 = load ptr, ptr %43, align 8, !tbaa !44
  %45 = getelementptr inbounds nuw i8, ptr %0, i64 80
  %46 = load ptr, ptr %45, align 8
  br label %47

47:                                               ; preds = %52, %.lr.ph.i.i.i
  %.014.i.i.i = phi i32 [ %.012.i.i.i, %.lr.ph.i.i.i ], [ %.0.i.i.i, %52 ]
  %48 = sext i32 %.014.i.i.i to i64
  %49 = getelementptr inbounds %class.b3HashPtr, ptr %44, i64 %48
  %50 = load ptr, ptr %49, align 8, !tbaa !4
  %51 = icmp eq ptr %16, %50
  br i1 %51, label %_ZN9b3HashMapI9b3HashPtrPN6bParse13bStructHandleEE4findERKS0_.exit.i, label %52

52:                                               ; preds = %47
  %53 = getelementptr inbounds i32, ptr %46, i64 %48
  %.0.i.i.i = load i32, ptr %53, align 4, !tbaa !76
  %.not11.i.i.i = icmp eq i32 %.0.i.i.i, -1
  br i1 %.not11.i.i.i, label %_ZN6bParse5bFile14findLibPointerEPv.exit, label %47, !llvm.loop !77

_ZN9b3HashMapI9b3HashPtrPN6bParse13bStructHandleEE4findERKS0_.exit.i: ; preds = %47
  %54 = getelementptr inbounds nuw i8, ptr %0, i64 112
  %55 = load ptr, ptr %54, align 8, !tbaa !40
  %.not.i = icmp eq ptr %55, null
  br i1 %.not.i, label %_ZN6bParse5bFile14findLibPointerEPv.exit, label %56

56:                                               ; preds = %_ZN9b3HashMapI9b3HashPtrPN6bParse13bStructHandleEE4findERKS0_.exit.i
  %57 = getelementptr inbounds ptr, ptr %55, i64 %48
  %58 = load ptr, ptr %57, align 8, !tbaa !78
  br label %_ZN6bParse5bFile14findLibPointerEPv.exit

_ZN6bParse5bFile14findLibPointerEPv.exit:         ; preds = %52, %3, %38, %_ZN9b3HashMapI9b3HashPtrPN6bParse13bStructHandleEE4findERKS0_.exit.i, %56
  %.0.i = phi ptr [ %58, %56 ], [ null, %_ZN9b3HashMapI9b3HashPtrPN6bParse13bStructHandleEE4findERKS0_.exit.i ], [ null, %3 ], [ null, %38 ], [ null, %52 ]
  %59 = getelementptr inbounds nuw i8, ptr %1, i64 20
  %60 = load i32, ptr %59, align 4, !tbaa !84
  %61 = icmp sgt i32 %60, 0
  br i1 %61, label %.lr.ph, label %._crit_edge

.lr.ph:                                           ; preds = %_ZN6bParse5bFile14findLibPointerEPv.exit
  %62 = sext i16 %14 to i64
  br label %63

._crit_edge:                                      ; preds = %63, %_ZN6bParse5bFile14findLibPointerEPv.exit
  ret void

63:                                               ; preds = %.lr.ph, %63
  %.017 = phi i32 [ 0, %.lr.ph ], [ %67, %63 ]
  %.01316 = phi ptr [ %.0.i, %.lr.ph ], [ %66, %63 ]
  %64 = load i32, ptr %9, align 8, !tbaa !80
  %65 = tail call noundef i32 @_ZN6bParse5bFile30resolvePointersStructRecursiveEPciii(ptr noundef nonnull align 8 dereferenceable(540) %0, ptr noundef %.01316, i32 noundef %64, i32 noundef %2, i32 noundef 1)
  %66 = getelementptr inbounds i8, ptr %.01316, i64 %62
  %67 = add nuw nsw i32 %.017, 1
  %68 = load i32, ptr %59, align 4, !tbaa !84
  %69 = icmp slt i32 %67, %68
  br i1 %69, label %63, label %._crit_edge, !llvm.loop !149
}